
main.elf:     file format elf32-avr

Sections:
Idx Name          Size      VMA       LMA       File off  Algn
  0 .data         00000000  00800100  0000023e  000002d2  2**0
                  CONTENTS, ALLOC, LOAD, DATA
  1 .text         0000023e  00000000  00000000  00000094  2**1
                  CONTENTS, ALLOC, LOAD, READONLY, CODE
  2 .bss          00000003  00800100  00800100  000002d2  2**0
                  ALLOC
  3 .stab         000006cc  00000000  00000000  000002d4  2**2
                  CONTENTS, READONLY, DEBUGGING
  4 .stabstr      00000081  00000000  00000000  000009a0  2**0
                  CONTENTS, READONLY, DEBUGGING
  5 .debug_aranges 00000080  00000000  00000000  00000a28  2**3
                  CONTENTS, READONLY, DEBUGGING
  6 .debug_info   00000300  00000000  00000000  00000aa8  2**0
                  CONTENTS, READONLY, DEBUGGING
  7 .debug_abbrev 00000050  00000000  00000000  00000da8  2**0
                  CONTENTS, READONLY, DEBUGGING
  8 .debug_line   0000019f  00000000  00000000  00000df8  2**0
                  CONTENTS, READONLY, DEBUGGING

Disassembly of section .text:

00000000 <__vectors>:
   0:	4b c0       	rjmp	.+150    	; 0x98 <__ctors_end>
   2:	00 00       	nop
   4:	64 c0       	rjmp	.+200    	; 0xce <__bad_interrupt>
   6:	00 00       	nop
   8:	62 c0       	rjmp	.+196    	; 0xce <__bad_interrupt>
   a:	00 00       	nop
   c:	60 c0       	rjmp	.+192    	; 0xce <__bad_interrupt>
   e:	00 00       	nop
  10:	5e c0       	rjmp	.+188    	; 0xce <__bad_interrupt>
  12:	00 00       	nop
  14:	5c c0       	rjmp	.+184    	; 0xce <__bad_interrupt>
  16:	00 00       	nop
  18:	5a c0       	rjmp	.+180    	; 0xce <__bad_interrupt>
  1a:	00 00       	nop
  1c:	58 c0       	rjmp	.+176    	; 0xce <__bad_interrupt>
  1e:	00 00       	nop
  20:	56 c0       	rjmp	.+172    	; 0xce <__bad_interrupt>
  22:	00 00       	nop
  24:	54 c0       	rjmp	.+168    	; 0xce <__bad_interrupt>
  26:	00 00       	nop
  28:	52 c0       	rjmp	.+164    	; 0xce <__bad_interrupt>
  2a:	00 00       	nop
  2c:	50 c0       	rjmp	.+160    	; 0xce <__bad_interrupt>
  2e:	00 00       	nop
  30:	4e c0       	rjmp	.+156    	; 0xce <__bad_interrupt>
  32:	00 00       	nop
  34:	4c c0       	rjmp	.+152    	; 0xce <__bad_interrupt>
  36:	00 00       	nop
  38:	4a c0       	rjmp	.+148    	; 0xce <__bad_interrupt>
  3a:	00 00       	nop
  3c:	48 c0       	rjmp	.+144    	; 0xce <__bad_interrupt>
  3e:	00 00       	nop
  40:	46 c0       	rjmp	.+140    	; 0xce <__bad_interrupt>
  42:	00 00       	nop
  44:	44 c0       	rjmp	.+136    	; 0xce <__bad_interrupt>
  46:	00 00       	nop
  48:	42 c0       	rjmp	.+132    	; 0xce <__bad_interrupt>
  4a:	00 00       	nop
  4c:	40 c0       	rjmp	.+128    	; 0xce <__bad_interrupt>
  4e:	00 00       	nop
  50:	3e c0       	rjmp	.+124    	; 0xce <__bad_interrupt>
  52:	00 00       	nop
  54:	3c c0       	rjmp	.+120    	; 0xce <__bad_interrupt>
  56:	00 00       	nop
  58:	3a c0       	rjmp	.+116    	; 0xce <__bad_interrupt>
  5a:	00 00       	nop
  5c:	38 c0       	rjmp	.+112    	; 0xce <__bad_interrupt>
  5e:	00 00       	nop
  60:	36 c0       	rjmp	.+108    	; 0xce <__bad_interrupt>
  62:	00 00       	nop
  64:	34 c0       	rjmp	.+104    	; 0xce <__bad_interrupt>
  66:	00 00       	nop
  68:	32 c0       	rjmp	.+100    	; 0xce <__bad_interrupt>
  6a:	00 00       	nop
  6c:	30 c0       	rjmp	.+96     	; 0xce <__bad_interrupt>
  6e:	00 00       	nop
  70:	2e c0       	rjmp	.+92     	; 0xce <__bad_interrupt>
  72:	00 00       	nop
  74:	2c c0       	rjmp	.+88     	; 0xce <__bad_interrupt>
  76:	00 00       	nop
  78:	2a c0       	rjmp	.+84     	; 0xce <__bad_interrupt>
  7a:	00 00       	nop
  7c:	28 c0       	rjmp	.+80     	; 0xce <__bad_interrupt>
  7e:	00 00       	nop
  80:	26 c0       	rjmp	.+76     	; 0xce <__bad_interrupt>
  82:	00 00       	nop
  84:	24 c0       	rjmp	.+72     	; 0xce <__bad_interrupt>
  86:	00 00       	nop
  88:	22 c0       	rjmp	.+68     	; 0xce <__bad_interrupt>
  8a:	00 00       	nop
  8c:	20 c0       	rjmp	.+64     	; 0xce <__bad_interrupt>
  8e:	00 00       	nop
  90:	1e c0       	rjmp	.+60     	; 0xce <__bad_interrupt>
  92:	00 00       	nop
  94:	1c c0       	rjmp	.+56     	; 0xce <__bad_interrupt>
  96:	00 00       	nop

00000098 <__ctors_end>:
  98:	11 24       	eor	r1, r1
  9a:	1f be       	out	0x3f, r1	; 63
  9c:	cf ef       	ldi	r28, 0xFF	; 255
  9e:	d0 e1       	ldi	r29, 0x10	; 16
  a0:	de bf       	out	0x3e, r29	; 62
  a2:	cd bf       	out	0x3d, r28	; 61

000000a4 <__do_copy_data>:
  a4:	11 e0       	ldi	r17, 0x01	; 1
  a6:	a0 e0       	ldi	r26, 0x00	; 0
  a8:	b1 e0       	ldi	r27, 0x01	; 1
  aa:	ee e3       	ldi	r30, 0x3E	; 62
  ac:	f2 e0       	ldi	r31, 0x02	; 2
  ae:	02 c0       	rjmp	.+4      	; 0xb4 <__do_copy_data+0x10>
  b0:	05 90       	lpm	r0, Z+
  b2:	0d 92       	st	X+, r0
  b4:	a0 30       	cpi	r26, 0x00	; 0
  b6:	b1 07       	cpc	r27, r17
  b8:	d9 f7       	brne	.-10     	; 0xb0 <__do_copy_data+0xc>

000000ba <__do_clear_bss>:
  ba:	11 e0       	ldi	r17, 0x01	; 1
  bc:	a0 e0       	ldi	r26, 0x00	; 0
  be:	b1 e0       	ldi	r27, 0x01	; 1
  c0:	01 c0       	rjmp	.+2      	; 0xc4 <.do_clear_bss_start>

000000c2 <.do_clear_bss_loop>:
  c2:	1d 92       	st	X+, r1

000000c4 <.do_clear_bss_start>:
  c4:	a3 30       	cpi	r26, 0x03	; 3
  c6:	b1 07       	cpc	r27, r17
  c8:	e1 f7       	brne	.-8      	; 0xc2 <.do_clear_bss_loop>
  ca:	43 d0       	rcall	.+134    	; 0x152 <main>
  cc:	b6 c0       	rjmp	.+364    	; 0x23a <_exit>

000000ce <__bad_interrupt>:
  ce:	98 cf       	rjmp	.-208    	; 0x0 <__vectors>

000000d0 <ddr_setup>:
  d0:	11 b8       	out	0x01, r1	; 1
  d2:	80 ec       	ldi	r24, 0xC0	; 192
  d4:	84 b9       	out	0x04, r24	; 4
  d6:	8f ef       	ldi	r24, 0xFF	; 255
  d8:	87 b9       	out	0x07, r24	; 7
  da:	88 e0       	ldi	r24, 0x08	; 8
  dc:	8a b9       	out	0x0a, r24	; 10
  de:	87 e0       	ldi	r24, 0x07	; 7
  e0:	8d b9       	out	0x0d, r24	; 13
  e2:	10 ba       	out	0x10, r1	; 16
  e4:	08 95       	ret

000000e6 <adc_read>:
  e6:	80 66       	ori	r24, 0x60	; 96
  e8:	80 93 7c 00 	sts	0x007C, r24
  ec:	86 ec       	ldi	r24, 0xC6	; 198
  ee:	80 93 7a 00 	sts	0x007A, r24
  f2:	80 91 7a 00 	lds	r24, 0x007A
  f6:	84 ff       	sbrs	r24, 4
  f8:	fc cf       	rjmp	.-8      	; 0xf2 <adc_read+0xc>
  fa:	80 91 7a 00 	lds	r24, 0x007A
  fe:	80 61       	ori	r24, 0x10	; 16
 100:	80 93 7a 00 	sts	0x007A, r24
 104:	80 91 7a 00 	lds	r24, 0x007A
 108:	80 64       	ori	r24, 0x40	; 64
 10a:	80 93 7a 00 	sts	0x007A, r24
 10e:	80 91 7a 00 	lds	r24, 0x007A
 112:	84 ff       	sbrs	r24, 4
 114:	fc cf       	rjmp	.-8      	; 0x10e <adc_read+0x28>
 116:	80 91 7a 00 	lds	r24, 0x007A
 11a:	80 61       	ori	r24, 0x10	; 16
 11c:	80 93 7a 00 	sts	0x007A, r24
 120:	80 91 79 00 	lds	r24, 0x0079
 124:	10 92 7a 00 	sts	0x007A, r1
 128:	08 95       	ret

0000012a <set_mtr_state>:
 12a:	6b 38       	cpi	r22, 0x8B	; 139
 12c:	10 f0       	brcs	.+4      	; 0x132 <set_mtr_state+0x8>
 12e:	80 e2       	ldi	r24, 0x20	; 32
 130:	0d c0       	rjmp	.+26     	; 0x14c <set_mtr_state+0x22>
 132:	67 fd       	sbrc	r22, 7
 134:	02 c0       	rjmp	.+4      	; 0x13a <set_mtr_state+0x10>
 136:	80 e1       	ldi	r24, 0x10	; 16
 138:	09 c0       	rjmp	.+18     	; 0x14c <set_mtr_state+0x22>
 13a:	89 38       	cpi	r24, 0x89	; 137
 13c:	10 f0       	brcs	.+4      	; 0x142 <set_mtr_state+0x18>
 13e:	82 e2       	ldi	r24, 0x22	; 34
 140:	05 c0       	rjmp	.+10     	; 0x14c <set_mtr_state+0x22>
 142:	8e 37       	cpi	r24, 0x7E	; 126
 144:	10 f4       	brcc	.+4      	; 0x14a <set_mtr_state+0x20>
 146:	83 e3       	ldi	r24, 0x33	; 51
 148:	01 c0       	rjmp	.+2      	; 0x14c <set_mtr_state+0x22>
 14a:	8a e3       	ldi	r24, 0x3A	; 58
 14c:	80 93 00 01 	sts	0x0100, r24
 150:	08 95       	ret

00000152 <main>:
 152:	be df       	rcall	.-132    	; 0xd0 <ddr_setup>
 154:	60 e8       	ldi	r22, 0x80	; 128
 156:	75 e2       	ldi	r23, 0x25	; 37
 158:	80 e0       	ldi	r24, 0x00	; 0
 15a:	90 e0       	ldi	r25, 0x00	; 0
 15c:	22 d0       	rcall	.+68     	; 0x1a2 <usart_setup>
 15e:	89 ef       	ldi	r24, 0xF9	; 249
 160:	90 e0       	ldi	r25, 0x00	; 0
 162:	01 97       	sbiw	r24, 0x01	; 1
 164:	f1 f7       	brne	.-4      	; 0x162 <main+0x10>
 166:	00 c0       	rjmp	.+0      	; 0x168 <main+0x16>
 168:	00 00       	nop
 16a:	86 e0       	ldi	r24, 0x06	; 6
 16c:	bc df       	rcall	.-136    	; 0xe6 <adc_read>
 16e:	c8 2f       	mov	r28, r24
 170:	85 e0       	ldi	r24, 0x05	; 5
 172:	b9 df       	rcall	.-142    	; 0xe6 <adc_read>
 174:	68 2f       	mov	r22, r24
 176:	8c 2f       	mov	r24, r28
 178:	d8 df       	rcall	.-80     	; 0x12a <set_mtr_state>
 17a:	80 91 00 01 	lds	r24, 0x0100
 17e:	34 d0       	rcall	.+104    	; 0x1e8 <usart_sendbyte>
 180:	00 9b       	sbis	0x00, 0	; 0
 182:	02 c0       	rjmp	.+4      	; 0x188 <main+0x36>
 184:	80 e2       	ldi	r24, 0x20	; 32
 186:	0b c0       	rjmp	.+22     	; 0x19e <main+0x4c>
 188:	01 9b       	sbis	0x00, 1	; 0
 18a:	02 c0       	rjmp	.+4      	; 0x190 <main+0x3e>
 18c:	80 e1       	ldi	r24, 0x10	; 16
 18e:	07 c0       	rjmp	.+14     	; 0x19e <main+0x4c>
 190:	02 9b       	sbis	0x00, 2	; 0
 192:	02 c0       	rjmp	.+4      	; 0x198 <main+0x46>
 194:	82 e2       	ldi	r24, 0x22	; 34
 196:	03 c0       	rjmp	.+6      	; 0x19e <main+0x4c>
 198:	03 9b       	sbis	0x00, 3	; 0
 19a:	e1 cf       	rjmp	.-62     	; 0x15e <main+0xc>
 19c:	83 e3       	ldi	r24, 0x33	; 51
 19e:	24 d0       	rcall	.+72     	; 0x1e8 <usart_sendbyte>
 1a0:	de cf       	rjmp	.-68     	; 0x15e <main+0xc>

000001a2 <usart_setup>:
 1a2:	0f 93       	push	r16
 1a4:	1f 93       	push	r17
 1a6:	9b 01       	movw	r18, r22
 1a8:	ac 01       	movw	r20, r24
 1aa:	82 e0       	ldi	r24, 0x02	; 2
 1ac:	80 93 c8 00 	sts	0x00C8, r24
 1b0:	88 e1       	ldi	r24, 0x18	; 24
 1b2:	80 93 c9 00 	sts	0x00C9, r24
 1b6:	86 e0       	ldi	r24, 0x06	; 6
 1b8:	80 93 ca 00 	sts	0x00CA, r24
 1bc:	60 e9       	ldi	r22, 0x90	; 144
 1be:	70 ed       	ldi	r23, 0xD0	; 208
 1c0:	83 e0       	ldi	r24, 0x03	; 3
 1c2:	90 e0       	ldi	r25, 0x00	; 0
 1c4:	18 d0       	rcall	.+48     	; 0x1f6 <__udivmodsi4>
 1c6:	89 01       	movw	r16, r18
 1c8:	9a 01       	movw	r18, r20
 1ca:	01 50       	subi	r16, 0x01	; 1
 1cc:	10 40       	sbci	r17, 0x00	; 0
 1ce:	20 40       	sbci	r18, 0x00	; 0
 1d0:	30 40       	sbci	r19, 0x00	; 0
 1d2:	36 95       	lsr	r19
 1d4:	27 95       	ror	r18
 1d6:	17 95       	ror	r17
 1d8:	07 95       	ror	r16
 1da:	10 93 cd 00 	sts	0x00CD, r17
 1de:	00 93 cc 00 	sts	0x00CC, r16
 1e2:	1f 91       	pop	r17
 1e4:	0f 91       	pop	r16
 1e6:	08 95       	ret

000001e8 <usart_sendbyte>:
 1e8:	90 91 c8 00 	lds	r25, 0x00C8
 1ec:	95 ff       	sbrs	r25, 5
 1ee:	fc cf       	rjmp	.-8      	; 0x1e8 <usart_sendbyte>
 1f0:	80 93 ce 00 	sts	0x00CE, r24
 1f4:	08 95       	ret

000001f6 <__udivmodsi4>:
 1f6:	a1 e2       	ldi	r26, 0x21	; 33
 1f8:	1a 2e       	mov	r1, r26
 1fa:	aa 1b       	sub	r26, r26
 1fc:	bb 1b       	sub	r27, r27
 1fe:	fd 01       	movw	r30, r26
 200:	0d c0       	rjmp	.+26     	; 0x21c <__udivmodsi4_ep>

00000202 <__udivmodsi4_loop>:
 202:	aa 1f       	adc	r26, r26
 204:	bb 1f       	adc	r27, r27
 206:	ee 1f       	adc	r30, r30
 208:	ff 1f       	adc	r31, r31
 20a:	a2 17       	cp	r26, r18
 20c:	b3 07       	cpc	r27, r19
 20e:	e4 07       	cpc	r30, r20
 210:	f5 07       	cpc	r31, r21
 212:	20 f0       	brcs	.+8      	; 0x21c <__udivmodsi4_ep>
 214:	a2 1b       	sub	r26, r18
 216:	b3 0b       	sbc	r27, r19
 218:	e4 0b       	sbc	r30, r20
 21a:	f5 0b       	sbc	r31, r21

0000021c <__udivmodsi4_ep>:
 21c:	66 1f       	adc	r22, r22
 21e:	77 1f       	adc	r23, r23
 220:	88 1f       	adc	r24, r24
 222:	99 1f       	adc	r25, r25
 224:	1a 94       	dec	r1
 226:	69 f7       	brne	.-38     	; 0x202 <__udivmodsi4_loop>
 228:	60 95       	com	r22
 22a:	70 95       	com	r23
 22c:	80 95       	com	r24
 22e:	90 95       	com	r25
 230:	9b 01       	movw	r18, r22
 232:	ac 01       	movw	r20, r24
 234:	bd 01       	movw	r22, r26
 236:	cf 01       	movw	r24, r30
 238:	08 95       	ret

0000023a <_exit>:
 23a:	f8 94       	cli

0000023c <__stop_program>:
 23c:	ff cf       	rjmp	.-2      	; 0x23c <__stop_program>
