   1               		.file	"main.c"
   2               	__SP_H__ = 0x3e
   3               	__SP_L__ = 0x3d
   4               	__SREG__ = 0x3f
   5               	__tmp_reg__ = 0
   6               	__zero_reg__ = 1
   7               		.section	.text.ddr_setup,"ax",@progbits
   8               	.global	ddr_setup
  10               	ddr_setup:
  11               	/* prologue: function */
  12               	/* frame size = 0 */
  13               	/* stack size = 0 */
  14               	.L__stack_usage = 0
  15 0000 11B8      		out 0x1,__zero_reg__
  16 0002 80EC      		ldi r24,lo8(-64)
  17 0004 84B9      		out 0x4,r24
  18 0006 8FEF      		ldi r24,lo8(-1)
  19 0008 87B9      		out 0x7,r24
  20 000a 88E0      		ldi r24,lo8(8)
  21 000c 8AB9      		out 0xa,r24
  22 000e 87E0      		ldi r24,lo8(7)
  23 0010 8DB9      		out 0xd,r24
  24 0012 10BA      		out 0x10,__zero_reg__
  25 0014 0895      		ret
  27               		.section	.text.adc_read,"ax",@progbits
  28               	.global	adc_read
  30               	adc_read:
  31               	/* prologue: function */
  32               	/* frame size = 0 */
  33               	/* stack size = 0 */
  34               	.L__stack_usage = 0
  35 0000 8066      		ori r24,lo8(96)
  36 0002 8093 7C00 		sts 124,r24
  37 0006 86EC      		ldi r24,lo8(-58)
  38 0008 8093 7A00 		sts 122,r24
  39               	.L3:
  40 000c 8091 7A00 		lds r24,122
  41 0010 84FF      		sbrs r24,4
  42 0012 00C0      		rjmp .L3
  43 0014 8091 7A00 		lds r24,122
  44 0018 8061      		ori r24,lo8(16)
  45 001a 8093 7A00 		sts 122,r24
  46 001e 8091 7A00 		lds r24,122
  47 0022 8064      		ori r24,lo8(64)
  48 0024 8093 7A00 		sts 122,r24
  49               	.L4:
  50 0028 8091 7A00 		lds r24,122
  51 002c 84FF      		sbrs r24,4
  52 002e 00C0      		rjmp .L4
  53 0030 8091 7A00 		lds r24,122
  54 0034 8061      		ori r24,lo8(16)
  55 0036 8093 7A00 		sts 122,r24
  56 003a 8091 7900 		lds r24,121
  57 003e 1092 7A00 		sts 122,__zero_reg__
  58 0042 0895      		ret
  60               		.section	.text.calc_speed,"ax",@progbits
  61               	.global	calc_speed
  63               	calc_speed:
  64               	/* prologue: function */
  65               	/* frame size = 0 */
  66               	/* stack size = 0 */
  67               	.L__stack_usage = 0
  68 0000 6F36      		cpi r22,lo8(111)
  69 0002 00F4      		brsh .L14
  70 0004 8838      		cpi r24,lo8(-120)
  71 0006 00F4      		brsh .L15
  72 0008 80E8      		ldi r24,lo8(-128)
  73 000a 8093 0000 		sts motor1_state,r24
  74 000e 80E4      		ldi r24,lo8(64)
  75 0010 8093 0000 		sts motor2_state,r24
  76 0014 80E0      		ldi r24,0
  77 0016 0895      		ret
  78               	.L14:
  79 0018 962F      		mov r25,r22
  80 001a 9A56      		subi r25,lo8(-(-106))
  81 001c 9062      		ori r25,lo8(32)
  82 001e 8838      		cpi r24,lo8(-120)
  83 0020 00F0      		brlo .L19
  84 0022 00C0      		rjmp .L17
  85               	.L15:
  86 0024 9AE6      		ldi r25,lo8(106)
  87 0026 961B      		sub r25,r22
  88 0028 9061      		ori r25,lo8(16)
  89               	.L17:
  90 002a 292F      		mov r18,r25
  91 002c 281B      		sub r18,r24
  92 002e 822F      		mov r24,r18
  93 0030 8D57      		subi r24,lo8(-(-125))
  94 0032 8093 0000 		sts motor2_state,r24
  95 0036 9093 0000 		sts motor1_state,r25
  96 003a 00C0      		rjmp .L20
  97               	.L19:
  98 003c 8358      		subi r24,lo8(-(125))
  99 003e 890F      		add r24,r25
 100 0040 8093 0000 		sts motor1_state,r24
 101 0044 9093 0000 		sts motor2_state,r25
 102               	.L20:
 103 0048 81E0      		ldi r24,lo8(1)
 104 004a 0895      		ret
 106               		.section	.text.usart_sendmotor,"ax",@progbits
 107               	.global	usart_sendmotor
 109               	usart_sendmotor:
 110               	/* prologue: function */
 111               	/* frame size = 0 */
 112               	/* stack size = 0 */
 113               	.L__stack_usage = 0
 114 0000 8091 0000 		lds r24,motor1_state
 115 0004 0E94 0000 		call usart_sendbyte
 116 0008 89EF      		ldi r24,lo8(249)
 117 000a 90E0      		ldi r25,hi8(249)
 118 000c 0197      		1: sbiw r24,1
 119 000e 01F4      		brne 1b
 120 0010 00C0      		rjmp .
 121 0012 0000      		nop
 122 0014 8091 0000 		lds r24,motor2_state
 123 0018 0E94 0000 		call usart_sendbyte
 124 001c 89EF      		ldi r24,lo8(249)
 125 001e 90E0      		ldi r25,hi8(249)
 126 0020 0197      		1: sbiw r24,1
 127 0022 01F4      		brne 1b
 128 0024 00C0      		rjmp .
 129 0026 0000      		nop
 130 0028 81E0      		ldi r24,lo8(1)
 131 002a 0895      		ret
 133               		.section	.text.startup.main,"ax",@progbits
 134               	.global	main
 136               	main:
 137               	/* prologue: function */
 138               	/* frame size = 0 */
 139               	/* stack size = 0 */
 140               	.L__stack_usage = 0
 141 0000 0E94 0000 		call ddr_setup
 142 0004 60E8      		ldi r22,lo8(-128)
 143 0006 75E2      		ldi r23,lo8(37)
 144 0008 80E0      		ldi r24,0
 145 000a 90E0      		ldi r25,0
 146 000c 0E94 0000 		call usart_setup
 147 0010 C0E0      		ldi r28,0
 148 0012 D0E0      		ldi r29,0
 149               	.L25:
 150 0014 89EF      		ldi r24,lo8(249)
 151 0016 90E0      		ldi r25,hi8(249)
 152 0018 0197      		1: sbiw r24,1
 153 001a 01F4      		brne 1b
 154 001c 00C0      		rjmp .
 155 001e 0000      		nop
 156 0020 86E0      		ldi r24,lo8(6)
 157 0022 0E94 0000 		call adc_read
 158 0026 182F      		mov r17,r24
 159 0028 85E0      		ldi r24,lo8(5)
 160 002a 0E94 0000 		call adc_read
 161 002e 682F      		mov r22,r24
 162 0030 812F      		mov r24,r17
 163 0032 0E94 0000 		call calc_speed
 164 0036 8091 0000 		lds r24,motor1_state
 165 003a 8D13      		cpse r24,r29
 166 003c 00C0      		rjmp .L23
 167 003e 8091 0000 		lds r24,motor2_state
 168 0042 8C13      		cpse r24,r28
 169               	.L23:
 170 0044 0E94 0000 		call usart_sendmotor
 171               	.L24:
 172 0048 D091 0000 		lds r29,motor1_state
 173 004c C091 0000 		lds r28,motor2_state
 174 0050 00C0      		rjmp .L25
 176               	.global	motor2_state
 177               		.section .bss
 180               	motor2_state:
 181 0000 00        		.zero	1
 182               	.global	motor1_state
 185               	motor1_state:
 186 0001 00        		.zero	1
 187               		.ident	"GCC: (GNU) 4.7.2"
 188               	.global __do_clear_bss
DEFINED SYMBOLS
                            *ABS*:00000000 main.c
/var/folders/ln/c7glznsd7wx_wx4bm67zgk_m0000gn/T//ccUUW8vm.s:2      *ABS*:0000003e __SP_H__
/var/folders/ln/c7glznsd7wx_wx4bm67zgk_m0000gn/T//ccUUW8vm.s:3      *ABS*:0000003d __SP_L__
/var/folders/ln/c7glznsd7wx_wx4bm67zgk_m0000gn/T//ccUUW8vm.s:4      *ABS*:0000003f __SREG__
/var/folders/ln/c7glznsd7wx_wx4bm67zgk_m0000gn/T//ccUUW8vm.s:5      *ABS*:00000000 __tmp_reg__
/var/folders/ln/c7glznsd7wx_wx4bm67zgk_m0000gn/T//ccUUW8vm.s:6      *ABS*:00000001 __zero_reg__
/var/folders/ln/c7glznsd7wx_wx4bm67zgk_m0000gn/T//ccUUW8vm.s:10     .text.ddr_setup:00000000 ddr_setup
/var/folders/ln/c7glznsd7wx_wx4bm67zgk_m0000gn/T//ccUUW8vm.s:30     .text.adc_read:00000000 adc_read
/var/folders/ln/c7glznsd7wx_wx4bm67zgk_m0000gn/T//ccUUW8vm.s:63     .text.calc_speed:00000000 calc_speed
/var/folders/ln/c7glznsd7wx_wx4bm67zgk_m0000gn/T//ccUUW8vm.s:185    .bss:00000001 motor1_state
/var/folders/ln/c7glznsd7wx_wx4bm67zgk_m0000gn/T//ccUUW8vm.s:180    .bss:00000000 motor2_state
/var/folders/ln/c7glznsd7wx_wx4bm67zgk_m0000gn/T//ccUUW8vm.s:109    .text.usart_sendmotor:00000000 usart_sendmotor
/var/folders/ln/c7glznsd7wx_wx4bm67zgk_m0000gn/T//ccUUW8vm.s:136    .text.startup.main:00000000 main

UNDEFINED SYMBOLS
usart_sendbyte
usart_setup
__do_clear_bss
